target datalayout = "e-m:e-p270:32:32-p271:32:32-p272:64:64-i64:64-i128:128-f80:128-n8:16:32:64-S128"
target triple = "x86_64-pc-linux-gnu"

%struct.text_import_info_t = type { ptr, ptr, i32, %struct.anon, %struct.anon.0, ptr, i32, ptr, i32, i32, i8, %union.anon, %union.anon.1, i32, i32, i32, i32, i32, ptr, i32, i32, i32 }
%struct.anon = type { ptr, i32, i8, i8, i8 }
%struct.anon.0 = type { ptr, ptr, i32, ptr, ptr }
%union.anon = type { i32, [12 x i8] }
%union.anon.1 = type { i32, [12 x i8] }
%struct._GString = type { ptr, i64, i64 }

@packet_buf = internal global ptr null, align 8
@curr_offset = internal global i32 0, align 4
@info_p = internal global ptr null, align 8
@.str = private unnamed_addr constant [5 x i8] c"Main\00", align 1
@pkt_lnstart = internal global ptr null, align 8
@.str.20 = private unnamed_addr constant [1 x i8] zeroinitializer, align 1
@g_ascii_table = external constant ptr, align 8
@.str.36 = private unnamed_addr constant [83 x i8] c"Expected ASCII rollback not found. Was ASCII identification enabled unnecessarily?\00", align 1
@.str.37 = private unnamed_addr constant [77 x i8] c"Expected %i byte%s to rollback at the end of line offset 0x%0X in packet %u.\00", align 1
@.str.38 = private unnamed_addr constant [2 x i8] c"s\00", align 1

; Function Attrs: nounwind null_pointer_is_valid sspstrong uwtable
define internal void @unwrite_bytes(i32 noundef %0) #3 {
  %2 = alloca i32, align 4
  store i32 %0, ptr %2, align 4
  %3 = load i32, ptr %2, align 4
  %4 = load i32, ptr @curr_offset, align 4
  %5 = sub i32 %4, %3
  store i32 %5, ptr @curr_offset, align 4
  ret void
}

; Function Attrs: inlinehint null_pointer_is_valid sspstrong uwtable
define internal ptr @g_string_append_c_inline(ptr noundef %0, i8 noundef signext %1) #14 {
  %3 = alloca ptr, align 8
  %4 = alloca i8, align 1
  store ptr %0, ptr %3, align 8
  store i8 %1, ptr %4, align 1
  %5 = load ptr, ptr %3, align 8
  %6 = getelementptr inbounds nuw %struct._GString, ptr %5, i32 0, i32 1
  %7 = load i64, ptr %6, align 8
  %8 = add i64 %7, 1
  %9 = load ptr, ptr %3, align 8
  %10 = getelementptr inbounds nuw %struct._GString, ptr %9, i32 0, i32 2
  %11 = load i64, ptr %10, align 8
  %12 = icmp ult i64 %8, %11
  br i1 %12, label %13, label %30

13:                                               ; preds = %2
  %14 = load i8, ptr %4, align 1
  %15 = load ptr, ptr %3, align 8
  %16 = getelementptr inbounds nuw %struct._GString, ptr %15, i32 0, i32 0
  %17 = load ptr, ptr %16, align 8
  %18 = load ptr, ptr %3, align 8
  %19 = getelementptr inbounds nuw %struct._GString, ptr %18, i32 0, i32 1
  %20 = load i64, ptr %19, align 8
  %21 = add i64 %20, 1
  store i64 %21, ptr %19, align 8
  %22 = getelementptr i8, ptr %17, i64 %20
  store i8 %14, ptr %22, align 1
  %23 = load ptr, ptr %3, align 8
  %24 = getelementptr inbounds nuw %struct._GString, ptr %23, i32 0, i32 0
  %25 = load ptr, ptr %24, align 8
  %26 = load ptr, ptr %3, align 8
  %27 = getelementptr inbounds nuw %struct._GString, ptr %26, i32 0, i32 1
  %28 = load i64, ptr %27, align 8
  %29 = getelementptr i8, ptr %25, i64 %28
  store i8 0, ptr %29, align 1
  br label %34

30:                                               ; preds = %2
  %31 = load ptr, ptr %3, align 8
  %32 = load i8, ptr %4, align 1
  %33 = call ptr @g_string_insert_c(ptr noundef %31, i64 noundef -1, i8 noundef signext %32)
  br label %34

34:                                               ; preds = %30, %13
  %35 = load ptr, ptr %3, align 8
  ret ptr %35
}

; Function Attrs: null_pointer_is_valid sspstrong uwtable
define internal void @process_rollback(i1 noundef zeroext %0) #0 {
  %2 = alloca i8, align 1
  %3 = alloca i32, align 4
  %4 = alloca i32, align 4
  %5 = alloca i32, align 4
  %6 = alloca i32, align 4
  %7 = alloca ptr, align 8
  %8 = alloca [3 x i8], align 1
  %9 = zext i1 %0 to i8
  store i8 %9, ptr %2, align 1
  call void @llvm.lifetime.start.p0(i64 4, ptr %3) #15
  store i32 0, ptr %3, align 4
  call void @llvm.lifetime.start.p0(i64 4, ptr %4) #15
  store i32 0, ptr %4, align 4
  call void @llvm.lifetime.start.p0(i64 4, ptr %5) #15
  call void @llvm.lifetime.start.p0(i64 4, ptr %6) #15
  call void @llvm.lifetime.start.p0(i64 8, ptr %7) #15
  call void @llvm.lifetime.start.p0(i64 3, ptr %8) #15
  store i32 0, ptr %3, align 4
  %10 = load i32, ptr @curr_offset, align 4
  %11 = load ptr, ptr @pkt_lnstart, align 8
  %12 = load ptr, ptr @packet_buf, align 8
  %13 = ptrtoint ptr %11 to i64
  %14 = ptrtoint ptr %12 to i64
  %15 = sub i64 %13, %14
  %16 = trunc i64 %15 to i32
  %17 = sub i32 %10, %16
  store i32 %17, ptr %5, align 4
  %18 = call ptr @g_string_new(ptr noundef null)
  store ptr %18, ptr %7, align 8
  store i32 0, ptr %6, align 4
  br label %19

19:                                               ; preds = %114, %34, %1
  %20 = load i32, ptr %6, align 4
  %21 = add i32 %20, 1
  %22 = load i32, ptr %3, align 4
  %23 = add i32 %21, %22
  %24 = load i32, ptr %5, align 4
  %25 = icmp slt i32 %23, %24
  br i1 %25, label %26, label %115

26:                                               ; preds = %19
  %27 = load ptr, ptr @pkt_lnstart, align 8
  %28 = load i32, ptr %6, align 4
  %29 = sext i32 %28 to i64
  %30 = getelementptr i8, ptr %27, i64 %29
  %31 = load i8, ptr %30, align 1
  %32 = zext i8 %31 to i32
  %33 = icmp eq i32 %32, 32
  br i1 %33, label %34, label %37

34:                                               ; preds = %26
  %35 = load i32, ptr %6, align 4
  %36 = add i32 %35, 1
  store i32 %36, ptr %6, align 4
  br label %19, !llvm.loop !34

37:                                               ; preds = %26
  %38 = load ptr, ptr @pkt_lnstart, align 8
  %39 = load i32, ptr %6, align 4
  %40 = sext i32 %39 to i64
  %41 = getelementptr i8, ptr %38, i64 %40
  %42 = load i8, ptr %41, align 1
  %43 = getelementptr [3 x i8], ptr %8, i64 0, i64 0
  store i8 %42, ptr %43, align 1
  %44 = load ptr, ptr @pkt_lnstart, align 8
  %45 = load i32, ptr %6, align 4
  %46 = add i32 %45, 1
  %47 = sext i32 %46 to i64
  %48 = getelementptr i8, ptr %44, i64 %47
  %49 = load i8, ptr %48, align 1
  %50 = getelementptr [3 x i8], ptr %8, i64 0, i64 1
  store i8 %49, ptr %50, align 1
  %51 = getelementptr [3 x i8], ptr %8, i64 0, i64 2
  store i8 0, ptr %51, align 1
  %52 = load ptr, ptr @g_ascii_table, align 8
  %53 = getelementptr [3 x i8], ptr %8, i64 0, i64 0
  %54 = load i8, ptr %53, align 1
  %55 = zext i8 %54 to i64
  %56 = getelementptr i16, ptr %52, i64 %55
  %57 = load i16, ptr %56, align 2
  %58 = zext i16 %57 to i32
  %59 = and i32 %58, 1024
  %60 = icmp ne i32 %59, 0
  br i1 %60, label %61, label %71

61:                                               ; preds = %37
  %62 = load ptr, ptr @g_ascii_table, align 8
  %63 = getelementptr [3 x i8], ptr %8, i64 0, i64 1
  %64 = load i8, ptr %63, align 1
  %65 = zext i8 %64 to i64
  %66 = getelementptr i16, ptr %62, i64 %65
  %67 = load i16, ptr %66, align 2
  %68 = zext i16 %67 to i32
  %69 = and i32 %68, 1024
  %70 = icmp ne i32 %69, 0
  br i1 %70, label %72, label %71

71:                                               ; preds = %61, %37
  br label %115

72:                                               ; preds = %61
  %73 = load ptr, ptr %7, align 8
  %74 = getelementptr inbounds [3 x i8], ptr %8, i64 0, i64 0
  %75 = call i64 @strtoul(ptr noundef %74, ptr noundef null, i32 noundef 16) #15
  %76 = trunc i64 %75 to i8
  %77 = call ptr @g_string_append_c_inline(ptr noundef %73, i8 noundef signext %76)
  %78 = load i32, ptr %6, align 4
  %79 = add i32 %78, 2
  store i32 %79, ptr %6, align 4
  %80 = load i8, ptr %2, align 1, !range !10, !noundef !11
  %81 = trunc i8 %80 to i1
  br i1 %81, label %82, label %85

82:                                               ; preds = %72
  %83 = load i32, ptr %3, align 4
  %84 = add i32 %83, 1
  store i32 %84, ptr %3, align 4
  br label %114

85:                                               ; preds = %72
  %86 = load i32, ptr %4, align 4
  %87 = add i32 %86, 1
  store i32 %87, ptr %4, align 4
  %88 = load i32, ptr %6, align 4
  %89 = load i32, ptr %3, align 4
  %90 = add i32 %88, %89
  %91 = load i32, ptr %5, align 4
  %92 = icmp slt i32 %90, %91
  br i1 %92, label %94, label %93

93:                                               ; preds = %85
  br label %115

94:                                               ; preds = %85
  %95 = load ptr, ptr @pkt_lnstart, align 8
  %96 = load i32, ptr %6, align 4
  %97 = sext i32 %96 to i64
  %98 = getelementptr i8, ptr %95, i64 %97
  %99 = load i8, ptr %98, align 1
  %100 = zext i8 %99 to i32
  %101 = icmp eq i32 %100, 32
  br i1 %101, label %102, label %108

102:                                              ; preds = %94
  %103 = load i32, ptr %4, align 4
  %104 = load i32, ptr %3, align 4
  %105 = add i32 %104, %103
  store i32 %105, ptr %3, align 4
  store i32 0, ptr %4, align 4
  %106 = load i32, ptr %6, align 4
  %107 = add i32 %106, 1
  store i32 %107, ptr %6, align 4
  br label %113

108:                                              ; preds = %94
  %109 = load i32, ptr %4, align 4
  %110 = icmp sge i32 %109, 4
  br i1 %110, label %111, label %112

111:                                              ; preds = %108
  br label %115

112:                                              ; preds = %108
  br label %113

113:                                              ; preds = %112, %102
  br label %114

114:                                              ; preds = %113, %82
  br label %19, !llvm.loop !34

115:                                              ; preds = %111, %93, %71, %19
  %116 = load i32, ptr %3, align 4
  %117 = icmp sgt i32 %116, 0
  br i1 %117, label %118, label %152

118:                                              ; preds = %115
  %119 = load ptr, ptr @pkt_lnstart, align 8
  %120 = load i32, ptr %5, align 4
  %121 = sext i32 %120 to i64
  %122 = getelementptr i8, ptr %119, i64 %121
  %123 = load i32, ptr %3, align 4
  %124 = sext i32 %123 to i64
  %125 = sub i64 0, %124
  %126 = getelementptr i8, ptr %122, i64 %125
  %127 = load ptr, ptr %7, align 8
  %128 = getelementptr inbounds nuw %struct._GString, ptr %127, i32 0, i32 0
  %129 = load ptr, ptr %128, align 8
  %130 = load i32, ptr %3, align 4
  %131 = sext i32 %130 to i64
  %132 = call i32 @strncmp(ptr noundef %126, ptr noundef %129, i64 noundef %131) #16
  %133 = icmp eq i32 %132, 0
  br i1 %133, label %134, label %136

134:                                              ; preds = %118
  %135 = load i32, ptr %3, align 4
  call void @unwrite_bytes(i32 noundef %135)
  br label %151

136:                                              ; preds = %118
  call void (ptr, ...) @report_warning(ptr noundef @.str.36)
  br label %137

137:                                              ; preds = %136
  %138 = load i32, ptr %3, align 4
  %139 = load i32, ptr %3, align 4
  %140 = icmp eq i32 %139, 1
  %141 = select i1 %140, ptr @.str.20, ptr @.str.38
  %142 = load i32, ptr @curr_offset, align 4
  %143 = load i32, ptr %5, align 4
  %144 = sub i32 %142, %143
  %145 = load ptr, ptr @info_p, align 8
  %146 = getelementptr inbounds nuw %struct.text_import_info_t, ptr %145, i32 0, i32 20
  %147 = load i32, ptr %146, align 4
  call void (ptr, i32, ptr, i64, ptr, ptr, ...) @ws_log_full(ptr noundef @.str, i32 noundef 4, ptr noundef null, i64 noundef -1, ptr noundef null, ptr noundef @.str.37, i32 noundef %138, ptr noundef %141, i32 noundef %144, i32 noundef %147)
  br label %148

148:                                              ; preds = %137
  br label %149

149:                                              ; preds = %148
  %150 = load i32, ptr %5, align 4
  call void @unwrite_bytes(i32 noundef %150)
  br label %151

151:                                              ; preds = %149, %134
  br label %152

152:                                              ; preds = %151, %115
  %153 = load ptr, ptr %7, align 8
  %154 = call ptr @g_string_free(ptr noundef %153, i32 noundef 1)
  call void @llvm.lifetime.end.p0(i64 3, ptr %8) #15
  call void @llvm.lifetime.end.p0(i64 8, ptr %7) #15
  call void @llvm.lifetime.end.p0(i64 4, ptr %6) #15
  call void @llvm.lifetime.end.p0(i64 4, ptr %5) #15
  call void @llvm.lifetime.end.p0(i64 4, ptr %4) #15
  call void @llvm.lifetime.end.p0(i64 4, ptr %3) #15
  ret void
}