; Function Attrs: null_pointer_is_valid sspstrong uwtable
define internal fastcc void @process_rollback(i1 noundef zeroext %0) unnamed_addr #0 {
  %2 = alloca [3 x i8], align 1
  call void @llvm.lifetime.start.p0(i64 3, ptr nonnull %2) #18
  %3 = load i32, ptr @curr_offset, align 4
  %4 = load ptr, ptr @pkt_lnstart, align 8
  %5 = load ptr, ptr @packet_buf, align 8
  %6 = ptrtoint ptr %4 to i64
  %7 = ptrtoint ptr %5 to i64
  %.neg = sub i64 %7, %6
  %.neg36 = trunc i64 %.neg to i32
  %8 = add i32 %3, %.neg36
  %9 = tail call ptr @g_string_new(ptr noundef null)
  %10 = getelementptr inbounds nuw i8, ptr %2, i64 1
  %11 = getelementptr inbounds nuw i8, ptr %2, i64 2
  %12 = load ptr, ptr @g_ascii_table, align 8
  %13 = getelementptr inbounds nuw i8, ptr %9, i64 8
  %14 = getelementptr inbounds nuw i8, ptr %9, i64 16
  br label %.outer.outer

.outer.outer:                                     ; preds = %.outer.outer.backedge, %1
  %.032.ph.ph = phi i32 [ 0, %1 ], [ %.032.ph.ph.be, %.outer.outer.backedge ]
  %.030.ph.ph = phi i32 [ 0, %1 ], [ %.030.ph.ph.be, %.outer.outer.backedge ]
  %.0.ph.ph = phi i32 [ 0, %1 ], [ %.0.ph.ph.be, %.outer.outer.backedge ]
  br label %.outer

.outer:                                           ; preds = %.outer.outer, %54
  %.030.ph = phi i32 [ %53, %54 ], [ %.030.ph.ph, %.outer.outer ]
  %.0.ph = phi i32 [ %55, %54 ], [ %.0.ph.ph, %.outer.outer ]
  %15 = load ptr, ptr @pkt_lnstart, align 8
  br label %16

16:                                               ; preds = %.outer, %20
  %.030 = phi i32 [ %17, %20 ], [ %.030.ph, %.outer ]
  %17 = add i32 %.030, 1
  %18 = add i32 %17, %.0.ph
  %19 = icmp slt i32 %18, %8
  br i1 %19, label %20, label %.loopexit

20:                                               ; preds = %16
  %21 = sext i32 %.030 to i64
  %22 = getelementptr i8, ptr %15, i64 %21
  %23 = load i8, ptr %22, align 1
  %24 = icmp eq i8 %23, 32
  br i1 %24, label %16, label %25, !llvm.loop !35

25:                                               ; preds = %20
  store i8 %23, ptr %2, align 1
  %26 = sext i32 %17 to i64
  %27 = getelementptr i8, ptr %15, i64 %26
  %28 = load i8, ptr %27, align 1
  store i8 %28, ptr %10, align 1
  store i8 0, ptr %11, align 1
  %29 = zext i8 %23 to i64
  %30 = getelementptr i16, ptr %12, i64 %29
  %31 = load i16, ptr %30, align 2
  %32 = and i16 %31, 1024
  %.not = icmp eq i16 %32, 0
  br i1 %.not, label %.loopexit, label %33

33:                                               ; preds = %25
  %34 = zext i8 %28 to i64
  %35 = getelementptr i16, ptr %12, i64 %34
  %36 = load i16, ptr %35, align 2
  %37 = and i16 %36, 1024
  %.not37 = icmp eq i16 %37, 0
  br i1 %.not37, label %.loopexit, label %38

38:                                               ; preds = %33
  %39 = call i64 @strtoul(ptr noundef nonnull captures(none) %2, ptr noundef null, i32 noundef 16) #18
  %40 = trunc i64 %39 to i8
  %41 = load i64, ptr %13, align 8
  %42 = add i64 %41, 1
  %43 = load i64, ptr %14, align 8
  %44 = icmp ult i64 %42, %43
  br i1 %44, label %45, label %51

45:                                               ; preds = %38
  %46 = load ptr, ptr %9, align 8
  store i64 %42, ptr %13, align 8
  %47 = getelementptr i8, ptr %46, i64 %41
  store i8 %40, ptr %47, align 1
  %48 = load ptr, ptr %9, align 8
  %49 = load i64, ptr %13, align 8
  %50 = getelementptr i8, ptr %48, i64 %49
  store i8 0, ptr %50, align 1
  br label %g_string_append_c_inline.exit

51:                                               ; preds = %38
  %52 = tail call ptr @g_string_insert_c(ptr noundef %9, i64 noundef -1, i8 noundef signext %40)
  br label %g_string_append_c_inline.exit

g_string_append_c_inline.exit:                    ; preds = %45, %51
  %53 = add i32 %.030, 2
  br i1 %0, label %54, label %56

54:                                               ; preds = %g_string_append_c_inline.exit
  %55 = add i32 %.0.ph, 1
  br label %.outer, !llvm.loop !35

56:                                               ; preds = %g_string_append_c_inline.exit
  %57 = add i32 %.032.ph.ph, 1
  %58 = add i32 %53, %.0.ph
  %59 = icmp slt i32 %58, %8
  br i1 %59, label %60, label %.loopexit

60:                                               ; preds = %56
  %61 = load ptr, ptr @pkt_lnstart, align 8
  %62 = sext i32 %53 to i64
  %63 = getelementptr i8, ptr %61, i64 %62
  %64 = load i8, ptr %63, align 1
  %65 = icmp eq i8 %64, 32
  br i1 %65, label %66, label %69

66:                                               ; preds = %60
  %67 = add i32 %.0.ph, %57
  %68 = add i32 %.030, 3
  br label %.outer.outer.backedge

.outer.outer.backedge:                            ; preds = %66, %69
  %.032.ph.ph.be = phi i32 [ %57, %69 ], [ 0, %66 ]
  %.030.ph.ph.be = phi i32 [ %53, %69 ], [ %68, %66 ]
  %.0.ph.ph.be = phi i32 [ %.0.ph, %69 ], [ %67, %66 ]
  br label %.outer.outer, !llvm.loop !35

69:                                               ; preds = %60
  %70 = icmp sgt i32 %57, 3
  br i1 %70, label %.loopexit, label %.outer.outer.backedge

.loopexit:                                        ; preds = %25, %33, %69, %56, %16
  %71 = icmp sgt i32 %.0.ph, 0
  br i1 %71, label %72, label %92

72:                                               ; preds = %.loopexit
  %73 = load ptr, ptr @pkt_lnstart, align 8
  %74 = sext i32 %8 to i64
  %75 = getelementptr i8, ptr %73, i64 %74
  %76 = zext nneg i32 %.0.ph to i64
  %77 = sub nsw i64 0, %76
  %78 = getelementptr i8, ptr %75, i64 %77
  %79 = load ptr, ptr %9, align 8
  %80 = tail call i32 @strncmp(ptr noundef %78, ptr noundef %79, i64 noundef %76) #17
  %81 = icmp eq i32 %80, 0
  br i1 %81, label %.sink.split, label %82

82:                                               ; preds = %72
  tail call void (ptr, ...) @report_warning(ptr noundef nonnull @.str.36)
  %83 = icmp eq i32 %.0.ph, 1
  %84 = select i1 %83, ptr @.str.20, ptr @.str.38
  %85 = load i32, ptr @curr_offset, align 4
  %86 = sub i32 %85, %8
  %87 = load ptr, ptr @info_p, align 8
  %88 = getelementptr inbounds nuw i8, ptr %87, i64 180
  %89 = load i32, ptr %88, align 4
  tail call void (ptr, i32, ptr, i64, ptr, ptr, ...) @ws_log_full(ptr noundef nonnull @.str, i32 noundef 4, ptr noundef null, i64 noundef -1, ptr noundef null, ptr noundef nonnull @.str.37, i32 noundef %.0.ph, ptr noundef nonnull %84, i32 noundef %86, i32 noundef %89)
  br label %.sink.split

.sink.split:                                      ; preds = %72, %82
  %.0.ph56.sink = phi i32 [ %8, %82 ], [ %.0.ph, %72 ]
  %90 = load i32, ptr @curr_offset, align 4
  %91 = sub i32 %90, %.0.ph56.sink
  store i32 %91, ptr @curr_offset, align 4
  br label %92

92:                                               ; preds = %.sink.split, %.loopexit
  %93 = tail call ptr @g_string_free(ptr noundef %9, i32 noundef 1)
  call void @llvm.lifetime.end.p0(i64 3, ptr nonnull %2) #18
  ret void
}